target datalayout = "e-m:e-p270:32:32-p271:32:32-p272:64:64-i64:64-i128:128-f80:128-n8:16:32:64-S128"
target triple = "x86_64-pc-linux-gnu"

%struct.stbtt__buf = type { ptr, i32, i32 }

; Function Attrs: nounwind uwtable
define zeroext i8 @stbtt__buf_get8(ptr noundef %0) #0 {
  %2 = alloca i8, align 1
  %3 = alloca ptr, align 8
  store ptr %0, ptr %3, align 8, !tbaa !3
  %4 = load ptr, ptr %3, align 8, !tbaa !3
  %5 = getelementptr inbounds nuw %struct.stbtt__buf, ptr %4, i32 0, i32 1
  %6 = load i32, ptr %5, align 8, !tbaa !7
  %7 = load ptr, ptr %3, align 8, !tbaa !3
  %8 = getelementptr inbounds nuw %struct.stbtt__buf, ptr %7, i32 0, i32 2
  %9 = load i32, ptr %8, align 4, !tbaa !11
  %10 = icmp sge i32 %6, %9
  br i1 %10, label %11, label %12

11:                                               ; preds = %1
  store i8 0, ptr %2, align 1
  br label %23

12:                                               ; preds = %1
  %13 = load ptr, ptr %3, align 8, !tbaa !3
  %14 = getelementptr inbounds nuw %struct.stbtt__buf, ptr %13, i32 0, i32 0
  %15 = load ptr, ptr %14, align 8, !tbaa !12
  %16 = load ptr, ptr %3, align 8, !tbaa !3
  %17 = getelementptr inbounds nuw %struct.stbtt__buf, ptr %16, i32 0, i32 1
  %18 = load i32, ptr %17, align 8, !tbaa !7
  %19 = add nsw i32 %18, 1
  store i32 %19, ptr %17, align 8, !tbaa !7
  %20 = sext i32 %18 to i64
  %21 = getelementptr inbounds i8, ptr %15, i64 %20
  %22 = load i8, ptr %21, align 1, !tbaa !13
  store i8 %22, ptr %2, align 1
  br label %23

23:                                               ; preds = %12, %11
  %24 = load i8, ptr %2, align 1
  ret i8 %24
}

; Function Attrs: nounwind uwtable
define i32 @stbtt__buf_get(ptr noundef %0, i32 noundef %1) #0 {
  %3 = alloca ptr, align 8
  %4 = alloca i32, align 4
  %5 = alloca i32, align 4
  %6 = alloca i32, align 4
  store ptr %0, ptr %3, align 8, !tbaa !3
  store i32 %1, ptr %4, align 4, !tbaa !14
  call void @llvm.lifetime.start.p0(i64 4, ptr %5) #8
  store i32 0, ptr %5, align 4, !tbaa !14
  call void @llvm.lifetime.start.p0(i64 4, ptr %6) #8
  store i32 0, ptr %6, align 4, !tbaa !14
  br label %7

7:                                                ; preds = %18, %2
  %8 = load i32, ptr %6, align 4, !tbaa !14
  %9 = load i32, ptr %4, align 4, !tbaa !14
  %10 = icmp slt i32 %8, %9
  br i1 %10, label %11, label %21

11:                                               ; preds = %7
  %12 = load i32, ptr %5, align 4, !tbaa !14
  %13 = shl i32 %12, 8
  %14 = load ptr, ptr %3, align 8, !tbaa !3
  %15 = call zeroext i8 @stbtt__buf_get8(ptr noundef %14)
  %16 = zext i8 %15 to i32
  %17 = or i32 %13, %16
  store i32 %17, ptr %5, align 4, !tbaa !14
  br label %18

18:                                               ; preds = %11
  %19 = load i32, ptr %6, align 4, !tbaa !14
  %20 = add nsw i32 %19, 1
  store i32 %20, ptr %6, align 4, !tbaa !14
  br label %7, !llvm.loop !15

21:                                               ; preds = %7
  %22 = load i32, ptr %5, align 4, !tbaa !14
  call void @llvm.lifetime.end.p0(i64 4, ptr %6) #8
  call void @llvm.lifetime.end.p0(i64 4, ptr %5) #8
  ret i32 %22
}