; Function Attrs: nofree norecurse nosync nounwind memory(read, argmem: readwrite, inaccessiblemem: none) uwtable
define i32 @stbtt__buf_get(ptr noundef captures(none) %0, i32 noundef %1) local_unnamed_addr #3 {
  %3 = icmp sgt i32 %1, 0
  br i1 %3, label %.lr.ph, label %._crit_edge

.lr.ph:                                           ; preds = %2
  %4 = getelementptr inbounds nuw i8, ptr %0, i64 8
  %5 = getelementptr inbounds nuw i8, ptr %0, i64 12
  %6 = load i32, ptr %5, align 4, !tbaa !10
  %.promoted = load i32, ptr %4, align 8, !tbaa !3
  br label %7

7:                                                ; preds = %.lr.ph, %stbtt__buf_get8.exit
  %8 = phi i32 [ %.promoted, %.lr.ph ], [ %17, %stbtt__buf_get8.exit ]
  %.07 = phi i32 [ 0, %.lr.ph ], [ %19, %stbtt__buf_get8.exit ]
  %.056 = phi i32 [ 0, %.lr.ph ], [ %18, %stbtt__buf_get8.exit ]
  %9 = shl i32 %.056, 8
  %.not.i = icmp slt i32 %8, %6
  br i1 %.not.i, label %10, label %stbtt__buf_get8.exit

10:                                               ; preds = %7
  %11 = load ptr, ptr %0, align 8, !tbaa !11
  %12 = add nsw i32 %8, 1
  store i32 %12, ptr %4, align 8, !tbaa !3
  %13 = sext i32 %8 to i64
  %14 = getelementptr inbounds i8, ptr %11, i64 %13
  %15 = load i8, ptr %14, align 1, !tbaa !12
  %16 = zext i8 %15 to i32
  br label %stbtt__buf_get8.exit

stbtt__buf_get8.exit:                             ; preds = %7, %10
  %17 = phi i32 [ %12, %10 ], [ %8, %7 ]
  %.0.i = phi i32 [ %16, %10 ], [ 0, %7 ]
  %18 = or disjoint i32 %.0.i, %9
  %19 = add nuw nsw i32 %.07, 1
  %exitcond.not = icmp eq i32 %19, %1
  br i1 %exitcond.not, label %._crit_edge, label %7, !llvm.loop !13

._crit_edge:                                      ; preds = %stbtt__buf_get8.exit, %2
  %.05.lcssa = phi i32 [ 0, %2 ], [ %18, %stbtt__buf_get8.exit ]
  ret i32 %.05.lcssa
}